(lp0
(lp1
(I0
I1
tp2
a(I1
I1
tp3
a(I2
I1
tp4
a(I3
I1
tp5
a(I4
I1
tp6
a(I5
I1
tp7
aa(lp8
(I6
I1
tp9
a(I7
I1
tp10
a(I8
I1
tp11
a(I9
I1
tp12
aa(lp13
(I0
I1
tp14
a(I10
I1
tp15
aa(lp16
(I9
I1
tp17
a(I11
I1
tp18
aa(lp19
(I0
I4
tp20
a(I2
I2
tp21
a(I8
I1
tp22
a(I12
I3
tp23
a(I13
I1
tp24
a(I14
I4
tp25
a(I15
I1
tp26
a(I16
I1
tp27
a(I17
I5
tp28
a(I18
I1
tp29
a(I19
I1
tp30
a(I20
I1
tp31
a(I21
I1
tp32
a(I22
I2
tp33
a(I23
I2
tp34
a(I24
I1
tp35
a(I25
I3
tp36
a(I26
I2
tp37
a(I27
I2
tp38
a(I28
I2
tp39
a(I29
I1
tp40
a(I30
I4
tp41
a(I31
I1
tp42
a(I32
I1
tp43
a(I33
I1
tp44
a(I34
I1
tp45
a(I35
I1
tp46
a(I36
I1
tp47
a(I37
I1
tp48
a(I38
I1
tp49
a(I39
I1
tp50
a(I40
I1
tp51
a(I41
I4
tp52
a(I42
I1
tp53
a(I43
I2
tp54
a(I44
I1
tp55
a(I45
I1
tp56
a(I46
I1
tp57
a(I47
I1
tp58
a(I48
I1
tp59
a(I49
I1
tp60
a(I50
I1
tp61
a(I51
I1
tp62
a(I52
I2
tp63
aa(lp64
(I0
I1
tp65
a(I10
I1
tp66
aa(lp67
(I41
I1
tp68
a(I53
I1
tp69
a(I54
I1
tp70
aa(lp71
(I0
I1
tp72
a(I10
I1
tp73
aa(lp74
(I0
I4
tp75
a(I2
I4
tp76
a(I14
I2
tp77
a(I52
I2
tp78
a(I55
I2
tp79
a(I56
I3
tp80
a(I57
I1
tp81
a(I58
I1
tp82
a(I59
I1
tp83
a(I60
I1
tp84
a(I61
I1
tp85
a(I62
I1
tp86
a(I63
I1
tp87
a(I64
I1
tp88
a(I65
I1
tp89
a(I66
I1
tp90
a(I67
I2
tp91
a(I68
I1
tp92
a(I69
I1
tp93
a(I70
I1
tp94
a(I71
I1
tp95
a(I72
I1
tp96
aa(lp97
(I6
I1
tp98
a(I8
I1
tp99
a(I9
I1
tp100
a(I14
I2
tp101
a(I17
I2
tp102
a(I41
I1
tp103
a(I52
I1
tp104
a(I64
I1
tp105
a(I73
I1
tp106
a(I74
I1
tp107
a(I75
I1
tp108
a(I76
I1
tp109
a(I77
I1
tp110
a(I78
I1
tp111
aa(lp112
(I0
I1
tp113
a(I1
I1
tp114
a(I2
I1
tp115
a(I3
I1
tp116
a(I4
I1
tp117
a(I5
I1
tp118
aa(lp119
(I0
I1
tp120
a(I14
I1
tp121
a(I52
I1
tp122
a(I79
I1
tp123
a(I80
I1
tp124
a(I81
I1
tp125
aa(lp126
(I9
I1
tp127
a(I11
I1
tp128
aa(lp129
(I0
I1
tp130
a(I82
I1
tp131
a(I83
I1
tp132
a(I84
I1
tp133
a(I85
I1
tp134
aa(lp135
(I17
I1
tp136
a(I86
I1
tp137
a(I87
I2
tp138
a(I88
I1
tp139
a(I89
I1
tp140
a(I90
I1
tp141
a(I91
I1
tp142
a(I92
I1
tp143
a(I93
I1
tp144
a(I94
I1
tp145
a(I95
I1
tp146
a(I96
I1
tp147
a(I97
I1
tp148
a(I98
I1
tp149
a(I99
I1
tp150
a(I100
I1
tp151
a(I101
I1
tp152
a(I102
I1
tp153
a(I103
I1
tp154
a(I104
I1
tp155
a(I105
I1
tp156
a(I106
I2
tp157
a(I107
I1
tp158
a(I108
I1
tp159
aa(lp160
(I2
I1
tp161
a(I16
I1
tp162
a(I22
I2
tp163
a(I109
I1
tp164
a(I110
I1
tp165
a(I111
I1
tp166
a(I112
I1
tp167
a(I113
I1
tp168
a(I114
I1
tp169
a(I115
I3
tp170
a(I116
I2
tp171
a(I117
I1
tp172
aa(lp173
(I24
I1
tp174
aa(lp175
(I0
I3
tp176
a(I2
I1
tp177
a(I14
I1
tp178
a(I27
I1
tp179
a(I63
I1
tp180
a(I118
I1
tp181
a(I119
I1
tp182
a(I120
I1
tp183
a(I121
I1
tp184
a(I122
I1
tp185
a(I123
I1
tp186
a(I124
I1
tp187
aa(lp188
(I41
I1
tp189
a(I49
I1
tp190
a(I125
I1
tp191
a(I126
I1
tp192
a(I127
I1
tp193
a(I128
I1
tp194
a(I129
I1
tp195
a(I130
I2
tp196
a(I131
I1
tp197
a(I132
I1
tp198
a(I133
I1
tp199
aa(lp200
(I9
I1
tp201
a(I11
I1
tp202
aa(lp203
(I56
I1
tp204
a(I121
I1
tp205
a(I134
I1
tp206
a(I135
I1
tp207
a(I136
I1
tp208
a(I137
I1
tp209
a(I138
I1
tp210
a(I139
I1
tp211
a(I140
I1
tp212
a(I141
I1
tp213
aa(lp214
(I0
I1
tp215
a(I10
I1
tp216
aa(lp217
(I5
I1
tp218
a(I41
I2
tp219
a(I42
I1
tp220
a(I142
I1
tp221
a(I143
I1
tp222
a(I144
I1
tp223
a(I145
I1
tp224
a(I146
I1
tp225
aa(lp226
(I10
I1
tp227
a(I17
I3
tp228
a(I137
I2
tp229
a(I147
I1
tp230
a(I148
I2
tp231
a(I149
I1
tp232
a(I150
I1
tp233
a(I151
I1
tp234
a(I152
I2
tp235
a(I153
I2
tp236
a(I154
I1
tp237
aa(lp238
(I0
I1
tp239
a(I10
I1
tp240
aa(lp241
(I9
I1
tp242
a(I11
I1
tp243
aa(lp244
(I0
I1
tp245
a(I8
I1
tp246
a(I9
I1
tp247
a(I155
I1
tp248
aa(lp249
(I0
I1
tp250
a(I10
I1
tp251
aa(lp252
(I0
I1
tp253
a(I156
I1
tp254
a(I157
I1
tp255
aa(lp256
(I0
I1
tp257
a(I1
I1
tp258
a(I2
I1
tp259
a(I3
I1
tp260
a(I4
I1
tp261
a(I5
I1
tp262
aa(lp263
(I0
I1
tp264
a(I158
I1
tp265
aa(lp266
(I0
I1
tp267
a(I7
I1
tp268
a(I157
I1
tp269
a(I159
I1
tp270
a(I160
I1
tp271
a(I161
I1
tp272
aa(lp273
(I9
I1
tp274
a(I11
I1
tp275
aa(lp276
(I0
I1
tp277
a(I10
I1
tp278
aa(lp279
(I0
I2
tp280
a(I32
I1
tp281
a(I44
I1
tp282
a(I152
I1
tp283
a(I159
I1
tp284
a(I162
I1
tp285
a(I163
I1
tp286
a(I164
I1
tp287
a(I165
I1
tp288
a(I166
I2
tp289
a(I167
I1
tp290
a(I168
I1
tp291
aa(lp292
(I0
I1
tp293
a(I10
I1
tp294
aa(lp295
(I0
I2
tp296
a(I10
I1
tp297
a(I13
I1
tp298
a(I17
I1
tp299
a(I22
I1
tp300
a(I32
I1
tp301
a(I36
I1
tp302
a(I42
I1
tp303
a(I83
I2
tp304
a(I98
I1
tp305
a(I101
I2
tp306
a(I130
I1
tp307
a(I132
I1
tp308
a(I153
I1
tp309
a(I155
I1
tp310
a(I169
I1
tp311
a(I170
I1
tp312
a(I171
I1
tp313
a(I172
I1
tp314
a(I173
I1
tp315
a(I174
I2
tp316
a(I175
I1
tp317
a(I176
I1
tp318
a(I177
I1
tp319
a(I178
I1
tp320
a(I179
I1
tp321
a(I180
I1
tp322
a(I181
I3
tp323
a(I182
I1
tp324
a(I183
I1
tp325
a(I184
I1
tp326
a(I185
I1
tp327
a(I186
I1
tp328
a(I187
I1
tp329
a(I188
I1
tp330
a(I189
I1
tp331
a(I190
I1
tp332
a(I191
I1
tp333
a(I192
I1
tp334
a(I193
I1
tp335
a(I194
I1
tp336
a(I195
I1
tp337
a(I196
I1
tp338
a(I197
I1
tp339
a(I198
I3
tp340
a(I199
I1
tp341
a(I200
I1
tp342
a(I201
I1
tp343
aa(lp344
(I9
I1
tp345
a(I11
I1
tp346
aa(lp347
(I6
I1
tp348
a(I10
I1
tp349
a(I12
I1
tp350
a(I14
I1
tp351
a(I30
I1
tp352
a(I36
I1
tp353
a(I152
I1
tp354
a(I164
I1
tp355
a(I198
I1
tp356
a(I202
I1
tp357
a(I203
I1
tp358
a(I204
I1
tp359
a(I205
I1
tp360
a(I206
I1
tp361
a(I207
I2
tp362
a(I208
I1
tp363
a(I209
I2
tp364
a(I210
I1
tp365
a(I211
I1
tp366
aa(lp367
(I0
I1
tp368
a(I10
I1
tp369
aa(lp370
(I0
I1
tp371
a(I6
I1
tp372
a(I7
I1
tp373
a(I13
I1
tp374
a(I17
I1
tp375
a(I42
I1
tp376
a(I44
I1
tp377
a(I56
I1
tp378
a(I97
I1
tp379
a(I138
I1
tp380
a(I147
I1
tp381
a(I212
I1
tp382
a(I213
I1
tp383
a(I214
I1
tp384
a(I215
I1
tp385
a(I216
I1
tp386
a(I217
I1
tp387
aa(lp388
(I0
I1
tp389
a(I10
I1
tp390
aa(lp391
(I42
I1
tp392
a(I147
I1
tp393
a(I152
I1
tp394
a(I166
I1
tp395
a(I218
I1
tp396
a(I219
I1
tp397
a(I220
I1
tp398
aa(lp399
(I134
I1
tp400
a(I163
I1
tp401
a(I221
I1
tp402
aa(lp403
(I2
I1
tp404
a(I222
I1
tp405
aa(lp406
(I0
I1
tp407
a(I10
I1
tp408
aa(lp409
(I9
I1
tp410
a(I11
I1
tp411
aa(lp412
(I0
I1
tp413
a(I82
I1
tp414
a(I223
I1
tp415
a(I224
I1
tp416
a(I225
I1
tp417
a(I226
I1
tp418
a(I227
I1
tp419
a(I228
I1
tp420
aa(lp421
(I2
I1
tp422
a(I13
I1
tp423
a(I42
I1
tp424
a(I121
I1
tp425
a(I160
I1
tp426
a(I176
I1
tp427
a(I229
I1
tp428
aa(lp429
(I9
I1
tp430
a(I11
I1
tp431
aa(lp432
(I0
I1
tp433
a(I1
I1
tp434
a(I2
I1
tp435
a(I3
I1
tp436
a(I4
I1
tp437
a(I5
I1
tp438
aa.